target datalayout = "e-m:e-p270:32:32-p271:32:32-p272:64:64-i64:64-i128:128-f80:128-n8:16:32:64-S128"
target triple = "x86_64-pc-linux-gnu"

; Function Attrs: alwaysinline mustprogress nounwind uwtable
define internal noundef i32 @_ZL14_mm_cvtss_si32Dv4_f(<4 x float> noundef %0) #9 {
  %2 = alloca <4 x float>, align 16
  store <4 x float> %0, ptr %2, align 16, !tbaa !16
  %3 = load <4 x float>, ptr %2, align 16, !tbaa !16
  %4 = call i32 @llvm.x86.sse.cvtss2si(<4 x float> %3)
  ret i32 %4
}

; Function Attrs: alwaysinline mustprogress nounwind uwtable
define internal noundef <4 x float> @_ZL10_mm_set_ssf(float noundef %0) #9 {
  %2 = alloca float, align 4
  %3 = alloca <4 x float>, align 16
  store float %0, ptr %2, align 4, !tbaa !12
  %4 = load float, ptr %2, align 4, !tbaa !12
  %5 = insertelement <4 x float> poison, float %4, i32 0
  %6 = insertelement <4 x float> %5, float 0.000000e+00, i32 1
  %7 = insertelement <4 x float> %6, float 0.000000e+00, i32 2
  %8 = insertelement <4 x float> %7, float 0.000000e+00, i32 3
  store <4 x float> %8, ptr %3, align 16, !tbaa !16
  %9 = load <4 x float>, ptr %3, align 16, !tbaa !16
  ret <4 x float> %9
}

; Function Attrs: inlinehint mustprogress nounwind uwtable
define linkonce_odr noundef nonnull align 1 dereferenceable(1) ptr @_ZSt3maxIhERKT_S2_S2_(ptr noundef nonnull align 1 dereferenceable(1) %0, ptr noundef nonnull align 1 dereferenceable(1) %1) #3 comdat {
  %3 = alloca ptr, align 8
  %4 = alloca ptr, align 8
  %5 = alloca ptr, align 8
  store ptr %0, ptr %4, align 8, !tbaa !8
  store ptr %1, ptr %5, align 8, !tbaa !8
  %6 = load ptr, ptr %4, align 8, !tbaa !8
  %7 = load i8, ptr %6, align 1, !tbaa !16
  %8 = zext i8 %7 to i32
  %9 = load ptr, ptr %5, align 8, !tbaa !8
  %10 = load i8, ptr %9, align 1, !tbaa !16
  %11 = zext i8 %10 to i32
  %12 = icmp slt i32 %8, %11
  br i1 %12, label %13, label %15

13:                                               ; preds = %2
  %14 = load ptr, ptr %5, align 8, !tbaa !8
  store ptr %14, ptr %3, align 8
  br label %17

15:                                               ; preds = %2
  %16 = load ptr, ptr %4, align 8, !tbaa !8
  store ptr %16, ptr %3, align 8
  br label %17

17:                                               ; preds = %15, %13
  %18 = load ptr, ptr %3, align 8
  ret ptr %18
}

; Function Attrs: inlinehint mustprogress nounwind uwtable
define linkonce_odr noundef nonnull align 1 dereferenceable(1) ptr @_ZSt3minIhERKT_S2_S2_(ptr noundef nonnull align 1 dereferenceable(1) %0, ptr noundef nonnull align 1 dereferenceable(1) %1) #3 comdat {
  %3 = alloca ptr, align 8
  %4 = alloca ptr, align 8
  %5 = alloca ptr, align 8
  store ptr %0, ptr %4, align 8, !tbaa !8
  store ptr %1, ptr %5, align 8, !tbaa !8
  %6 = load ptr, ptr %5, align 8, !tbaa !8
  %7 = load i8, ptr %6, align 1, !tbaa !16
  %8 = zext i8 %7 to i32
  %9 = load ptr, ptr %4, align 8, !tbaa !8
  %10 = load i8, ptr %9, align 1, !tbaa !16
  %11 = zext i8 %10 to i32
  %12 = icmp slt i32 %8, %11
  br i1 %12, label %13, label %15

13:                                               ; preds = %2
  %14 = load ptr, ptr %5, align 8, !tbaa !8
  store ptr %14, ptr %3, align 8
  br label %17

15:                                               ; preds = %2
  %16 = load ptr, ptr %4, align 8, !tbaa !8
  store ptr %16, ptr %3, align 8
  br label %17

17:                                               ; preds = %15, %13
  %18 = load ptr, ptr %3, align 8
  ret ptr %18
}

; Function Attrs: inlinehint mustprogress uwtable
define internal noundef i32 @_ZL7cvRoundf(float noundef %0) #2 {
  %2 = alloca float, align 4
  %3 = alloca <4 x float>, align 16
  store float %0, ptr %2, align 4, !tbaa !12
  call void @llvm.lifetime.start.p0(i64 16, ptr %3) #19
  %4 = load float, ptr %2, align 4, !tbaa !12
  %5 = call noundef <4 x float> @_ZL10_mm_set_ssf(float noundef %4)
  store <4 x float> %5, ptr %3, align 16, !tbaa !16
  %6 = load <4 x float>, ptr %3, align 16, !tbaa !16
  %7 = call noundef i32 @_ZL14_mm_cvtss_si32Dv4_f(<4 x float> noundef %6)
  call void @llvm.lifetime.end.p0(i64 16, ptr %3) #19
  ret i32 %7
}

; Function Attrs: mustprogress uwtable
define hidden void @_ZN2cv6xphoto20calculateChannelSumsERjS1_S1_Phif(ptr noundef nonnull align 4 dereferenceable(4) %0, ptr noundef nonnull align 4 dereferenceable(4) %1, ptr noundef nonnull align 4 dereferenceable(4) %2, ptr noundef %3, i32 noundef %4, float noundef %5) #0 {
  %7 = alloca ptr, align 8
  %8 = alloca ptr, align 8
  %9 = alloca ptr, align 8
  %10 = alloca ptr, align 8
  %11 = alloca i32, align 4
  %12 = alloca float, align 4
  %13 = alloca i16, align 2
  %14 = alloca i32, align 4
  %15 = alloca i32, align 4
  %16 = alloca i32, align 4
  store ptr %0, ptr %7, align 8, !tbaa !3
  store ptr %1, ptr %8, align 8, !tbaa !3
  store ptr %2, ptr %9, align 8, !tbaa !3
  store ptr %3, ptr %10, align 8, !tbaa !8
  store i32 %4, ptr %11, align 4, !tbaa !10
  store float %5, ptr %12, align 4, !tbaa !12
  %17 = load ptr, ptr %9, align 8, !tbaa !3
  store i32 0, ptr %17, align 4, !tbaa !10
  %18 = load ptr, ptr %8, align 8, !tbaa !3
  store i32 0, ptr %18, align 4, !tbaa !10
  %19 = load ptr, ptr %7, align 8, !tbaa !3
  store i32 0, ptr %19, align 4, !tbaa !10
  call void @llvm.lifetime.start.p0(i64 2, ptr %13) #19
  %20 = load float, ptr %12, align 4, !tbaa !12
  %21 = fmul float %20, 2.550000e+02
  %22 = call noundef i32 @_ZL7cvRoundf(float noundef %21)
  %23 = trunc i32 %22 to i16
  store i16 %23, ptr %13, align 2, !tbaa !14
  call void @llvm.lifetime.start.p0(i64 4, ptr %14) #19
  store i32 0, ptr %14, align 4, !tbaa !10
  call void @llvm.lifetime.start.p0(i64 4, ptr %15) #19
  call void @llvm.lifetime.start.p0(i64 4, ptr %16) #19
  br label %24

24:                                               ; preds = %105, %6
  %25 = load i32, ptr %14, align 4, !tbaa !10
  %26 = load i32, ptr %11, align 4, !tbaa !10
  %27 = icmp slt i32 %25, %26
  br i1 %27, label %28, label %108

28:                                               ; preds = %24
  %29 = load ptr, ptr %10, align 8, !tbaa !8
  %30 = load i32, ptr %14, align 4, !tbaa !10
  %31 = sext i32 %30 to i64
  %32 = getelementptr inbounds i8, ptr %29, i64 %31
  %33 = load ptr, ptr %10, align 8, !tbaa !8
  %34 = load i32, ptr %14, align 4, !tbaa !10
  %35 = add nsw i32 %34, 1
  %36 = sext i32 %35 to i64
  %37 = getelementptr inbounds i8, ptr %33, i64 %36
  %38 = load ptr, ptr %10, align 8, !tbaa !8
  %39 = load i32, ptr %14, align 4, !tbaa !10
  %40 = add nsw i32 %39, 2
  %41 = sext i32 %40 to i64
  %42 = getelementptr inbounds i8, ptr %38, i64 %41
  %43 = call noundef nonnull align 1 dereferenceable(1) ptr @_ZSt3minIhERKT_S2_S2_(ptr noundef nonnull align 1 dereferenceable(1) %37, ptr noundef nonnull align 1 dereferenceable(1) %42)
  %44 = call noundef nonnull align 1 dereferenceable(1) ptr @_ZSt3minIhERKT_S2_S2_(ptr noundef nonnull align 1 dereferenceable(1) %32, ptr noundef nonnull align 1 dereferenceable(1) %43)
  %45 = load i8, ptr %44, align 1, !tbaa !16
  %46 = zext i8 %45 to i32
  store i32 %46, ptr %15, align 4, !tbaa !10
  %47 = load ptr, ptr %10, align 8, !tbaa !8
  %48 = load i32, ptr %14, align 4, !tbaa !10
  %49 = sext i32 %48 to i64
  %50 = getelementptr inbounds i8, ptr %47, i64 %49
  %51 = load ptr, ptr %10, align 8, !tbaa !8
  %52 = load i32, ptr %14, align 4, !tbaa !10
  %53 = add nsw i32 %52, 1
  %54 = sext i32 %53 to i64
  %55 = getelementptr inbounds i8, ptr %51, i64 %54
  %56 = load ptr, ptr %10, align 8, !tbaa !8
  %57 = load i32, ptr %14, align 4, !tbaa !10
  %58 = add nsw i32 %57, 2
  %59 = sext i32 %58 to i64
  %60 = getelementptr inbounds i8, ptr %56, i64 %59
  %61 = call noundef nonnull align 1 dereferenceable(1) ptr @_ZSt3maxIhERKT_S2_S2_(ptr noundef nonnull align 1 dereferenceable(1) %55, ptr noundef nonnull align 1 dereferenceable(1) %60)
  %62 = call noundef nonnull align 1 dereferenceable(1) ptr @_ZSt3maxIhERKT_S2_S2_(ptr noundef nonnull align 1 dereferenceable(1) %50, ptr noundef nonnull align 1 dereferenceable(1) %61)
  %63 = load i8, ptr %62, align 1, !tbaa !16
  %64 = zext i8 %63 to i32
  store i32 %64, ptr %16, align 4, !tbaa !10
  %65 = load i32, ptr %16, align 4, !tbaa !10
  %66 = load i32, ptr %15, align 4, !tbaa !10
  %67 = sub i32 %65, %66
  %68 = mul i32 %67, 255
  %69 = load i16, ptr %13, align 2, !tbaa !14
  %70 = zext i16 %69 to i32
  %71 = load i32, ptr %16, align 4, !tbaa !10
  %72 = mul i32 %70, %71
  %73 = icmp ugt i32 %68, %72
  br i1 %73, label %74, label %75

74:                                               ; preds = %28
  br label %105

75:                                               ; preds = %28
  %76 = load ptr, ptr %10, align 8, !tbaa !8
  %77 = load i32, ptr %14, align 4, !tbaa !10
  %78 = sext i32 %77 to i64
  %79 = getelementptr inbounds i8, ptr %76, i64 %78
  %80 = load i8, ptr %79, align 1, !tbaa !16
  %81 = zext i8 %80 to i32
  %82 = load ptr, ptr %7, align 8, !tbaa !3
  %83 = load i32, ptr %82, align 4, !tbaa !10
  %84 = add i32 %83, %81
  store i32 %84, ptr %82, align 4, !tbaa !10
  %85 = load ptr, ptr %10, align 8, !tbaa !8
  %86 = load i32, ptr %14, align 4, !tbaa !10
  %87 = add nsw i32 %86, 1
  %88 = sext i32 %87 to i64
  %89 = getelementptr inbounds i8, ptr %85, i64 %88
  %90 = load i8, ptr %89, align 1, !tbaa !16
  %91 = zext i8 %90 to i32
  %92 = load ptr, ptr %8, align 8, !tbaa !3
  %93 = load i32, ptr %92, align 4, !tbaa !10
  %94 = add i32 %93, %91
  store i32 %94, ptr %92, align 4, !tbaa !10
  %95 = load ptr, ptr %10, align 8, !tbaa !8
  %96 = load i32, ptr %14, align 4, !tbaa !10
  %97 = add nsw i32 %96, 2
  %98 = sext i32 %97 to i64
  %99 = getelementptr inbounds i8, ptr %95, i64 %98
  %100 = load i8, ptr %99, align 1, !tbaa !16
  %101 = zext i8 %100 to i32
  %102 = load ptr, ptr %9, align 8, !tbaa !3
  %103 = load i32, ptr %102, align 4, !tbaa !10
  %104 = add i32 %103, %101
  store i32 %104, ptr %102, align 4, !tbaa !10
  br label %105

105:                                              ; preds = %75, %74
  %106 = load i32, ptr %14, align 4, !tbaa !10
  %107 = add nsw i32 %106, 3
  store i32 %107, ptr %14, align 4, !tbaa !10
  br label %24, !llvm.loop !17

108:                                              ; preds = %24
  call void @llvm.lifetime.end.p0(i64 4, ptr %16) #19
  call void @llvm.lifetime.end.p0(i64 4, ptr %15) #19
  call void @llvm.lifetime.end.p0(i64 4, ptr %14) #19
  call void @llvm.lifetime.end.p0(i64 2, ptr %13) #19
  ret void
}