; Function Attrs: mustprogress nofree norecurse nosync nounwind memory(argmem: readwrite) uwtable
define hidden void @_ZN2cv6xphoto20calculateChannelSumsERjS1_S1_Phif(ptr noundef nonnull align 4 captures(none) dereferenceable(4) initializes((0, 4)) %0, ptr noundef nonnull align 4 captures(none) dereferenceable(4) initializes((0, 4)) %1, ptr noundef nonnull align 4 captures(none) dereferenceable(4) initializes((0, 4)) %2, ptr noundef readonly captures(none) %3, i32 noundef %4, float noundef %5) local_unnamed_addr #0 {
  store i32 0, ptr %2, align 4, !tbaa !3
  store i32 0, ptr %1, align 4, !tbaa !3
  store i32 0, ptr %0, align 4, !tbaa !3
  %7 = icmp sgt i32 %4, 0
  br i1 %7, label %.lr.ph, label %._crit_edge

.lr.ph:                                           ; preds = %6
  %8 = fmul float %5, 2.550000e+02
  %9 = insertelement <4 x float> poison, float %8, i64 0
  %10 = tail call noundef i32 @llvm.x86.sse.cvtss2si(<4 x float> %9)
  %11 = and i32 %10, 65535
  %12 = zext nneg i32 %4 to i64
  br label %13

13:                                               ; preds = %.lr.ph, %42
  %indvars.iv = phi i64 [ 0, %.lr.ph ], [ %indvars.iv.next, %42 ]
  %14 = getelementptr inbounds nuw i8, ptr %3, i64 %indvars.iv
  %15 = getelementptr inbounds nuw i8, ptr %14, i64 1
  %16 = getelementptr inbounds nuw i8, ptr %14, i64 2
  %17 = load i8, ptr %16, align 1, !tbaa !7
  %18 = load i8, ptr %15, align 1, !tbaa !7
  %19 = tail call i8 @llvm.umin.i8(i8 %17, i8 %18)
  %20 = load i8, ptr %14, align 1, !tbaa !7
  %21 = tail call i8 @llvm.umin.i8(i8 %19, i8 %20)
  %22 = zext i8 %21 to i32
  %23 = tail call i8 @llvm.umax.i8(i8 %18, i8 %17)
  %24 = tail call i8 @llvm.umax.i8(i8 %20, i8 %23)
  %25 = zext i8 %24 to i32
  %26 = sub nsw i32 %25, %22
  %27 = mul nsw i32 %26, 255
  %28 = mul nuw nsw i32 %11, %25
  %29 = icmp ugt i32 %27, %28
  br i1 %29, label %42, label %30

30:                                               ; preds = %13
  %31 = zext i8 %20 to i32
  %32 = load i32, ptr %0, align 4, !tbaa !3
  %33 = add i32 %32, %31
  store i32 %33, ptr %0, align 4, !tbaa !3
  %34 = load i8, ptr %15, align 1, !tbaa !7
  %35 = zext i8 %34 to i32
  %36 = load i32, ptr %1, align 4, !tbaa !3
  %37 = add i32 %36, %35
  store i32 %37, ptr %1, align 4, !tbaa !3
  %38 = load i8, ptr %16, align 1, !tbaa !7
  %39 = zext i8 %38 to i32
  %40 = load i32, ptr %2, align 4, !tbaa !3
  %41 = add i32 %40, %39
  store i32 %41, ptr %2, align 4, !tbaa !3
  br label %42

42:                                               ; preds = %13, %30
  %indvars.iv.next = add nuw nsw i64 %indvars.iv, 3
  %43 = icmp samesign ult i64 %indvars.iv.next, %12
  br i1 %43, label %13, label %._crit_edge, !llvm.loop !8

._crit_edge:                                      ; preds = %42, %6
  ret void
}